target datalayout = "e-m:e-p270:32:32-p271:32:32-p272:64:64-i64:64-i128:128-f80:128-n8:16:32:64-S128"
target triple = "x86_64-pc-linux-gnu"

; Function Attrs: alwaysinline nounwind uwtable
define internal void @color_decorrelation(ptr noundef %0, i32 noundef %1, ptr noundef %2, i32 noundef %3, i32 noundef %4, i32 noundef %5, i32 noundef %6, i32 noundef %7, i32 noundef %8) #6 {
  %10 = alloca ptr, align 8
  %11 = alloca i32, align 4
  %12 = alloca ptr, align 8
  %13 = alloca i32, align 4
  %14 = alloca i32, align 4
  %15 = alloca i32, align 4
  %16 = alloca i32, align 4
  %17 = alloca i32, align 4
  %18 = alloca i32, align 4
  %19 = alloca i32, align 4
  %20 = alloca i32, align 4
  %21 = alloca ptr, align 8
  %22 = alloca ptr, align 8
  %23 = alloca ptr, align 8
  %24 = alloca ptr, align 8
  store ptr %0, ptr %10, align 8, !tbaa !91
  store i32 %1, ptr %11, align 4, !tbaa !35
  store ptr %2, ptr %12, align 8, !tbaa !93
  store i32 %3, ptr %13, align 4, !tbaa !35
  store i32 %4, ptr %14, align 4, !tbaa !35
  store i32 %5, ptr %15, align 4, !tbaa !35
  store i32 %6, ptr %16, align 4, !tbaa !35
  store i32 %7, ptr %17, align 4, !tbaa !35
  store i32 %8, ptr %18, align 4, !tbaa !35
  call void @llvm.lifetime.start.p0(i64 4, ptr %19) #11
  call void @llvm.lifetime.start.p0(i64 4, ptr %20) #11
  call void @llvm.lifetime.start.p0(i64 8, ptr %21) #11
  %25 = load ptr, ptr %10, align 8, !tbaa !91
  %26 = getelementptr inbounds ptr, ptr %25, i64 0
  %27 = load ptr, ptr %26, align 8, !tbaa !61
  store ptr %27, ptr %21, align 8, !tbaa !61
  call void @llvm.lifetime.start.p0(i64 8, ptr %22) #11
  %28 = load ptr, ptr %10, align 8, !tbaa !91
  %29 = getelementptr inbounds ptr, ptr %28, i64 1
  %30 = load ptr, ptr %29, align 8, !tbaa !61
  store ptr %30, ptr %22, align 8, !tbaa !61
  call void @llvm.lifetime.start.p0(i64 8, ptr %23) #11
  %31 = load ptr, ptr %10, align 8, !tbaa !91
  %32 = getelementptr inbounds ptr, ptr %31, i64 2
  %33 = load ptr, ptr %32, align 8, !tbaa !61
  store ptr %33, ptr %23, align 8, !tbaa !61
  call void @llvm.lifetime.start.p0(i64 8, ptr %24) #11
  %34 = load ptr, ptr %12, align 8, !tbaa !93
  %35 = getelementptr inbounds ptr, ptr %34, i64 0
  %36 = load ptr, ptr %35, align 8, !tbaa !67
  store ptr %36, ptr %24, align 8, !tbaa !67
  store i32 0, ptr %20, align 4, !tbaa !35
  br label %37

37:                                               ; preds = %148, %9
  %38 = load i32, ptr %20, align 4, !tbaa !35
  %39 = load i32, ptr %15, align 4, !tbaa !35
  %40 = icmp slt i32 %38, %39
  br i1 %40, label %41, label %151

41:                                               ; preds = %37
  store i32 0, ptr %19, align 4, !tbaa !35
  br label %42

42:                                               ; preds = %125, %41
  %43 = load i32, ptr %19, align 4, !tbaa !35
  %44 = load i32, ptr %14, align 4, !tbaa !35
  %45 = icmp slt i32 %43, %44
  br i1 %45, label %46, label %128

46:                                               ; preds = %42
  %47 = load ptr, ptr %24, align 8, !tbaa !67
  %48 = load i32, ptr %16, align 4, !tbaa !35
  %49 = sext i32 %48 to i64
  %50 = getelementptr inbounds i8, ptr %47, i64 %49
  %51 = load i8, ptr %50, align 1, !tbaa !95
  %52 = zext i8 %51 to i32
  %53 = sitofp i32 %52 to float
  %54 = load ptr, ptr %24, align 8, !tbaa !67
  %55 = load i32, ptr %17, align 4, !tbaa !35
  %56 = sext i32 %55 to i64
  %57 = getelementptr inbounds i8, ptr %54, i64 %56
  %58 = load i8, ptr %57, align 1, !tbaa !95
  %59 = zext i8 %58 to i32
  %60 = sitofp i32 %59 to float
  %61 = fmul nsz float %60, 0x3FE279A740000000
  %62 = call nsz float @llvm.fmuladd.f32(float %53, float 0x3FE279A740000000, float %61)
  %63 = load ptr, ptr %24, align 8, !tbaa !67
  %64 = load i32, ptr %18, align 4, !tbaa !35
  %65 = sext i32 %64 to i64
  %66 = getelementptr inbounds i8, ptr %63, i64 %65
  %67 = load i8, ptr %66, align 1, !tbaa !95
  %68 = zext i8 %67 to i32
  %69 = sitofp i32 %68 to float
  %70 = call nsz float @llvm.fmuladd.f32(float %69, float 0x3FE279A740000000, float %62)
  %71 = load ptr, ptr %21, align 8, !tbaa !61
  %72 = load i32, ptr %19, align 4, !tbaa !35
  %73 = sext i32 %72 to i64
  %74 = getelementptr inbounds float, ptr %71, i64 %73
  store float %70, ptr %74, align 4, !tbaa !81
  %75 = load ptr, ptr %24, align 8, !tbaa !67
  %76 = load i32, ptr %16, align 4, !tbaa !35
  %77 = sext i32 %76 to i64
  %78 = getelementptr inbounds i8, ptr %75, i64 %77
  %79 = load i8, ptr %78, align 1, !tbaa !95
  %80 = zext i8 %79 to i32
  %81 = sitofp i32 %80 to float
  %82 = load ptr, ptr %24, align 8, !tbaa !67
  %83 = load i32, ptr %18, align 4, !tbaa !35
  %84 = sext i32 %83 to i64
  %85 = getelementptr inbounds i8, ptr %82, i64 %84
  %86 = load i8, ptr %85, align 1, !tbaa !95
  %87 = zext i8 %86 to i32
  %88 = sitofp i32 %87 to float
  %89 = fmul nsz float %88, 0xBFE6A09E60000000
  %90 = call nsz float @llvm.fmuladd.f32(float %81, float 0x3FE6A09E60000000, float %89)
  %91 = load ptr, ptr %22, align 8, !tbaa !61
  %92 = load i32, ptr %19, align 4, !tbaa !35
  %93 = sext i32 %92 to i64
  %94 = getelementptr inbounds float, ptr %91, i64 %93
  store float %90, ptr %94, align 4, !tbaa !81
  %95 = load ptr, ptr %24, align 8, !tbaa !67
  %96 = load i32, ptr %16, align 4, !tbaa !35
  %97 = sext i32 %96 to i64
  %98 = getelementptr inbounds i8, ptr %95, i64 %97
  %99 = load i8, ptr %98, align 1, !tbaa !95
  %100 = zext i8 %99 to i32
  %101 = sitofp i32 %100 to float
  %102 = load ptr, ptr %24, align 8, !tbaa !67
  %103 = load i32, ptr %17, align 4, !tbaa !35
  %104 = sext i32 %103 to i64
  %105 = getelementptr inbounds i8, ptr %102, i64 %104
  %106 = load i8, ptr %105, align 1, !tbaa !95
  %107 = zext i8 %106 to i32
  %108 = sitofp i32 %107 to float
  %109 = fmul nsz float %108, 0xBFEA20BD80000000
  %110 = call nsz float @llvm.fmuladd.f32(float %101, float 0x3FDA20BD80000000, float %109)
  %111 = load ptr, ptr %24, align 8, !tbaa !67
  %112 = load i32, ptr %18, align 4, !tbaa !35
  %113 = sext i32 %112 to i64
  %114 = getelementptr inbounds i8, ptr %111, i64 %113
  %115 = load i8, ptr %114, align 1, !tbaa !95
  %116 = zext i8 %115 to i32
  %117 = sitofp i32 %116 to float
  %118 = call nsz float @llvm.fmuladd.f32(float %117, float 0x3FDA20BD80000000, float %110)
  %119 = load ptr, ptr %23, align 8, !tbaa !61
  %120 = load i32, ptr %19, align 4, !tbaa !35
  %121 = sext i32 %120 to i64
  %122 = getelementptr inbounds float, ptr %119, i64 %121
  store float %118, ptr %122, align 4, !tbaa !81
  %123 = load ptr, ptr %24, align 8, !tbaa !67
  %124 = getelementptr inbounds i8, ptr %123, i64 3
  store ptr %124, ptr %24, align 8, !tbaa !67
  br label %125

125:                                              ; preds = %46
  %126 = load i32, ptr %19, align 4, !tbaa !35
  %127 = add nsw i32 %126, 1
  store i32 %127, ptr %19, align 4, !tbaa !35
  br label %42, !llvm.loop !100

128:                                              ; preds = %42
  %129 = load i32, ptr %13, align 4, !tbaa !35
  %130 = load i32, ptr %14, align 4, !tbaa !35
  %131 = mul nsw i32 %130, 3
  %132 = sub nsw i32 %129, %131
  %133 = load ptr, ptr %24, align 8, !tbaa !67
  %134 = sext i32 %132 to i64
  %135 = getelementptr inbounds i8, ptr %133, i64 %134
  store ptr %135, ptr %24, align 8, !tbaa !67
  %136 = load i32, ptr %11, align 4, !tbaa !35
  %137 = load ptr, ptr %21, align 8, !tbaa !61
  %138 = sext i32 %136 to i64
  %139 = getelementptr inbounds float, ptr %137, i64 %138
  store ptr %139, ptr %21, align 8, !tbaa !61
  %140 = load i32, ptr %11, align 4, !tbaa !35
  %141 = load ptr, ptr %22, align 8, !tbaa !61
  %142 = sext i32 %140 to i64
  %143 = getelementptr inbounds float, ptr %141, i64 %142
  store ptr %143, ptr %22, align 8, !tbaa !61
  %144 = load i32, ptr %11, align 4, !tbaa !35
  %145 = load ptr, ptr %23, align 8, !tbaa !61
  %146 = sext i32 %144 to i64
  %147 = getelementptr inbounds float, ptr %145, i64 %146
  store ptr %147, ptr %23, align 8, !tbaa !61
  br label %148

148:                                              ; preds = %128
  %149 = load i32, ptr %20, align 4, !tbaa !35
  %150 = add nsw i32 %149, 1
  store i32 %150, ptr %20, align 4, !tbaa !35
  br label %37, !llvm.loop !101

151:                                              ; preds = %37
  call void @llvm.lifetime.end.p0(i64 8, ptr %24) #11
  call void @llvm.lifetime.end.p0(i64 8, ptr %23) #11
  call void @llvm.lifetime.end.p0(i64 8, ptr %22) #11
  call void @llvm.lifetime.end.p0(i64 8, ptr %21) #11
  call void @llvm.lifetime.end.p0(i64 4, ptr %20) #11
  call void @llvm.lifetime.end.p0(i64 4, ptr %19) #11
  ret void
}

; Function Attrs: nounwind uwtable
define internal void @color_decorrelation_bgr(ptr noundef %0, i32 noundef %1, ptr noundef %2, i32 noundef %3, i32 noundef %4, i32 noundef %5) #1 {
  %7 = alloca ptr, align 8
  %8 = alloca i32, align 4
  %9 = alloca ptr, align 8
  %10 = alloca i32, align 4
  %11 = alloca i32, align 4
  %12 = alloca i32, align 4
  store ptr %0, ptr %7, align 8, !tbaa !91
  store i32 %1, ptr %8, align 4, !tbaa !35
  store ptr %2, ptr %9, align 8, !tbaa !93
  store i32 %3, ptr %10, align 4, !tbaa !35
  store i32 %4, ptr %11, align 4, !tbaa !35
  store i32 %5, ptr %12, align 4, !tbaa !35
  %13 = load ptr, ptr %7, align 8, !tbaa !91
  %14 = load i32, ptr %8, align 4, !tbaa !35
  %15 = load ptr, ptr %9, align 8, !tbaa !93
  %16 = load i32, ptr %10, align 4, !tbaa !35
  %17 = load i32, ptr %11, align 4, !tbaa !35
  %18 = load i32, ptr %12, align 4, !tbaa !35
  call void @color_decorrelation(ptr noundef %13, i32 noundef %14, ptr noundef %15, i32 noundef %16, i32 noundef %17, i32 noundef %18, i32 noundef 2, i32 noundef 1, i32 noundef 0)
  ret void
}